; Function Attrs: nounwind uwtable
define nonnull ptr @l_Lean_Elab_TerminationHints_isNotNone___boxed(ptr noundef %0) local_unnamed_addr #1 {
  %2 = getelementptr inbounds nuw i8, ptr %0, i64 16
  %3 = load ptr, ptr %2, align 8, !tbaa !10
  %4 = ptrtoint ptr %3 to i64
  %5 = and i64 %4, 1
  %.not.i.i = icmp eq i64 %5, 0
  br i1 %.not.i.i, label %9, label %6

6:                                                ; preds = %1
  %7 = lshr i64 %4, 1
  %8 = trunc i64 %7 to i32
  br label %lean_obj_tag.exit.i

9:                                                ; preds = %1
  %10 = getelementptr i8, ptr %3, i64 4
  %.val.i.i = load i32, ptr %10, align 4
  %11 = lshr i32 %.val.i.i, 24
  br label %lean_obj_tag.exit.i

lean_obj_tag.exit.i:                              ; preds = %9, %6
  %.0.i.i = phi i32 [ %8, %6 ], [ %11, %9 ]
  %12 = icmp eq i32 %.0.i.i, 0
  br i1 %12, label %13, label %l_Lean_Elab_TerminationHints_isNotNone.exit

13:                                               ; preds = %lean_obj_tag.exit.i
  %14 = getelementptr inbounds nuw i8, ptr %0, i64 24
  %15 = load ptr, ptr %14, align 8, !tbaa !10
  %16 = ptrtoint ptr %15 to i64
  %17 = and i64 %16, 1
  %.not.i13.i = icmp eq i64 %17, 0
  br i1 %.not.i13.i, label %21, label %18

18:                                               ; preds = %13
  %19 = lshr i64 %16, 1
  %20 = trunc i64 %19 to i32
  br label %lean_obj_tag.exit16.i

21:                                               ; preds = %13
  %22 = getelementptr i8, ptr %15, i64 4
  %.val.i15.i = load i32, ptr %22, align 4
  %23 = lshr i32 %.val.i15.i, 24
  br label %lean_obj_tag.exit16.i

lean_obj_tag.exit16.i:                            ; preds = %21, %18
  %.0.i14.i = phi i32 [ %20, %18 ], [ %23, %21 ]
  %24 = icmp eq i32 %.0.i14.i, 0
  br i1 %24, label %25, label %l_Lean_Elab_TerminationHints_isNotNone.exit

25:                                               ; preds = %lean_obj_tag.exit16.i
  %26 = getelementptr inbounds nuw i8, ptr %0, i64 40
  %27 = load ptr, ptr %26, align 8, !tbaa !10
  %28 = ptrtoint ptr %27 to i64
  %29 = and i64 %28, 1
  %.not.i17.i = icmp eq i64 %29, 0
  br i1 %.not.i17.i, label %33, label %30

30:                                               ; preds = %25
  %31 = lshr i64 %28, 1
  %32 = trunc i64 %31 to i32
  br label %lean_obj_tag.exit20.i

33:                                               ; preds = %25
  %34 = getelementptr i8, ptr %27, i64 4
  %.val.i19.i = load i32, ptr %34, align 4
  %35 = lshr i32 %.val.i19.i, 24
  br label %lean_obj_tag.exit20.i

lean_obj_tag.exit20.i:                            ; preds = %33, %30
  %.0.i18.i = phi i32 [ %32, %30 ], [ %35, %33 ]
  %36 = icmp eq i32 %.0.i18.i, 0
  br i1 %36, label %37, label %l_Lean_Elab_TerminationHints_isNotNone.exit

37:                                               ; preds = %lean_obj_tag.exit20.i
  %38 = getelementptr inbounds nuw i8, ptr %0, i64 32
  %39 = load ptr, ptr %38, align 8, !tbaa !10
  %40 = ptrtoint ptr %39 to i64
  %41 = and i64 %40, 1
  %.not.i21.i = icmp eq i64 %41, 0
  br i1 %.not.i21.i, label %45, label %42

42:                                               ; preds = %37
  %43 = lshr i64 %40, 1
  %44 = trunc i64 %43 to i32
  br label %lean_obj_tag.exit24.i

45:                                               ; preds = %37
  %46 = getelementptr i8, ptr %39, i64 4
  %.val.i23.i = load i32, ptr %46, align 4
  %47 = lshr i32 %.val.i23.i, 24
  br label %lean_obj_tag.exit24.i

lean_obj_tag.exit24.i:                            ; preds = %45, %42
  %.0.i22.i = phi i32 [ %44, %42 ], [ %47, %45 ]
  %.not3 = icmp eq i32 %.0.i22.i, 0
  %48 = select i1 %.not3, i64 1, i64 3
  br label %l_Lean_Elab_TerminationHints_isNotNone.exit

l_Lean_Elab_TerminationHints_isNotNone.exit:      ; preds = %lean_obj_tag.exit.i, %lean_obj_tag.exit16.i, %lean_obj_tag.exit20.i, %lean_obj_tag.exit24.i
  %.3.i = phi i64 [ %48, %lean_obj_tag.exit24.i ], [ 3, %lean_obj_tag.exit20.i ], [ 3, %lean_obj_tag.exit16.i ], [ 3, %lean_obj_tag.exit.i ]
  %49 = ptrtoint ptr %0 to i64
  %50 = and i64 %49, 1
  %.not = icmp eq i64 %50, 0
  br i1 %.not, label %51, label %lean_dec.exit

51:                                               ; preds = %l_Lean_Elab_TerminationHints_isNotNone.exit
  %52 = load i32, ptr %0, align 4, !tbaa !4
  %53 = icmp sgt i32 %52, 1
  br i1 %53, label %54, label %56, !prof !9

54:                                               ; preds = %51
  %55 = add nsw i32 %52, -1
  store i32 %55, ptr %0, align 4, !tbaa !4
  br label %lean_dec.exit

56:                                               ; preds = %51
  %.not.i = icmp eq i32 %52, 0
  br i1 %.not.i, label %lean_dec.exit, label %57

57:                                               ; preds = %56
  tail call void @lean_dec_ref_cold(ptr noundef nonnull %0) #8
  br label %lean_dec.exit

lean_dec.exit:                                    ; preds = %57, %56, %54, %l_Lean_Elab_TerminationHints_isNotNone.exit
  %58 = inttoptr i64 %.3.i to ptr
  ret ptr %58
}